; Function Attrs: mustprogress nofree norecurse nosync nounwind willreturn memory(read, inaccessiblemem: none) uwtable
define hidden noundef zeroext i1 @_ZNK10arith_util17is_underspecifiedEP4expr(ptr noundef nonnull readnone align 8 captures(none) dereferenceable(16) %0, ptr noundef readonly captures(none) %1) local_unnamed_addr #14 align 2 {
  %3 = getelementptr inbounds nuw i8, ptr %1, i64 4
  %4 = load i32, ptr %3, align 4
  %5 = and i32 %4, 65535
  %6 = icmp eq i32 %5, 0
  br i1 %6, label %7, label %_ZNK3app13get_family_idEv.exit.thread

7:                                                ; preds = %2
  %8 = getelementptr inbounds nuw i8, ptr %1, i64 16
  %9 = load ptr, ptr %8, align 8, !tbaa !193
  %10 = getelementptr inbounds nuw i8, ptr %9, i64 24
  %11 = load ptr, ptr %10, align 8, !tbaa !212
  %12 = icmp eq ptr %11, null
  br i1 %12, label %_ZNK3app13get_family_idEv.exit.thread, label %_ZNK3app13get_family_idEv.exit

_ZNK3app13get_family_idEv.exit:                   ; preds = %7
  %13 = load i32, ptr %11, align 8, !tbaa !54
  %14 = icmp eq i32 %13, 5
  br i1 %14, label %_ZNK3app13get_decl_kindEv.exit, label %_ZNK3app13get_family_idEv.exit.thread

_ZNK3app13get_decl_kindEv.exit:                   ; preds = %_ZNK3app13get_family_idEv.exit
  %15 = getelementptr inbounds nuw i8, ptr %11, i64 4
  %16 = load i32, ptr %15, align 4, !tbaa !222
  %17 = icmp ult i32 %16, 18
  br i1 %17, label %switch.lookup, label %_ZNK3app13get_family_idEv.exit.thread

switch.lookup:                                    ; preds = %_ZNK3app13get_decl_kindEv.exit
  %switch.cast = trunc nuw i32 %16 to i18
  %switch.downshift = lshr i18 -17408, %switch.cast
  %switch.masked = trunc i18 %switch.downshift to i1
  br label %_ZNK3app13get_family_idEv.exit.thread

_ZNK3app13get_family_idEv.exit.thread:            ; preds = %_ZNK3app13get_family_idEv.exit, %7, %_ZNK3app13get_decl_kindEv.exit, %switch.lookup, %2
  %.0 = phi i1 [ false, %2 ], [ %switch.masked, %switch.lookup ], [ false, %_ZNK3app13get_decl_kindEv.exit ], [ false, %7 ], [ false, %_ZNK3app13get_family_idEv.exit ]
  ret i1 %.0
}